target datalayout = "e-m:e-p270:32:32-p271:32:32-p272:64:64-i64:64-i128:128-f80:128-n8:16:32:64-S128"
target triple = "x86_64-pc-linux-gnu"

%struct.XML_Parser_Struct = type { i32, ptr, ptr, ptr, ptr, ptr, ptr, ptr, ptr, ptr, ptr, ptr, ptr, ptr, ptr }
%struct._xmlError = type { i32, i32, ptr, i32, ptr, i32, ptr, ptr, ptr, i32, i32, ptr, ptr }

; Function Attrs: nounwind uwtable
define dso_local i32 @php_XML_Parse(ptr noundef %0, ptr noundef %1, i32 noundef %2, i32 noundef %3) #0 {
  %5 = alloca i32, align 4
  %6 = alloca ptr, align 8
  %7 = alloca ptr, align 8
  %8 = alloca i32, align 4
  %9 = alloca i32, align 4
  %10 = alloca i32, align 4
  %11 = alloca ptr, align 8
  %12 = alloca i32, align 4
  store ptr %0, ptr %6, align 8, !tbaa !11
  store ptr %1, ptr %7, align 8, !tbaa !4
  store i32 %2, ptr %8, align 4, !tbaa !66
  store i32 %3, ptr %9, align 4, !tbaa !66
  call void @llvm.lifetime.start.p0(i64 4, ptr %10) #8
  %13 = load ptr, ptr %6, align 8, !tbaa !11
  %14 = getelementptr inbounds nuw %struct.XML_Parser_Struct, ptr %13, i32 0, i32 3
  %15 = load ptr, ptr %14, align 8, !tbaa !18
  %16 = load ptr, ptr %7, align 8, !tbaa !4
  %17 = load i32, ptr %8, align 4, !tbaa !66
  %18 = load i32, ptr %9, align 4, !tbaa !66
  %19 = call i32 @xmlParseChunk(ptr noundef %15, ptr noundef %16, i32 noundef %17, i32 noundef %18)
  store i32 %19, ptr %10, align 4, !tbaa !66
  %20 = load i32, ptr %10, align 4, !tbaa !66
  %21 = icmp ne i32 %20, 0
  br i1 %21, label %37, label %22

22:                                               ; preds = %4
  call void @llvm.lifetime.start.p0(i64 8, ptr %11) #8
  %23 = load ptr, ptr %6, align 8, !tbaa !11
  %24 = getelementptr inbounds nuw %struct.XML_Parser_Struct, ptr %23, i32 0, i32 3
  %25 = load ptr, ptr %24, align 8, !tbaa !18
  %26 = call ptr @xmlCtxtGetLastError(ptr noundef %25)
  store ptr %26, ptr %11, align 8, !tbaa !67
  %27 = load ptr, ptr %11, align 8, !tbaa !67
  %28 = icmp ne ptr %27, null
  br i1 %28, label %29, label %34

29:                                               ; preds = %22
  %30 = load ptr, ptr %11, align 8, !tbaa !67
  %31 = getelementptr inbounds nuw %struct._xmlError, ptr %30, i32 0, i32 3
  %32 = load i32, ptr %31, align 8, !tbaa !69
  %33 = icmp ule i32 %32, 1
  br label %34

34:                                               ; preds = %29, %22
  %35 = phi i1 [ true, %22 ], [ %33, %29 ]
  %36 = zext i1 %35 to i32
  store i32 %36, ptr %5, align 4
  store i32 1, ptr %12, align 4
  call void @llvm.lifetime.end.p0(i64 8, ptr %11) #8
  br label %38

37:                                               ; preds = %4
  store i32 0, ptr %5, align 4
  store i32 1, ptr %12, align 4
  br label %38

38:                                               ; preds = %37, %34
  call void @llvm.lifetime.end.p0(i64 4, ptr %10) #8
  %39 = load i32, ptr %5, align 4
  ret i32 %39
}