; Function Attrs: nounwind uwtable
define dso_local range(i32 0, 2) i32 @php_XML_Parse(ptr noundef readonly captures(none) %0, ptr noundef %1, i32 noundef %2, i32 noundef %3) local_unnamed_addr #0 {
  %5 = getelementptr inbounds nuw i8, ptr %0, i64 24
  %6 = load ptr, ptr %5, align 8, !tbaa !4
  %7 = tail call i32 @xmlParseChunk(ptr noundef %6, ptr noundef %1, i32 noundef %2, i32 noundef %3) #11
  %.not = icmp eq i32 %7, 0
  br i1 %.not, label %8, label %16

8:                                                ; preds = %4
  %9 = load ptr, ptr %5, align 8, !tbaa !4
  %10 = tail call ptr @xmlCtxtGetLastError(ptr noundef %9) #11
  %.not9 = icmp eq ptr %10, null
  br i1 %.not9, label %16, label %11

11:                                               ; preds = %8
  %12 = getelementptr inbounds nuw i8, ptr %10, i64 16
  %13 = load i32, ptr %12, align 8, !tbaa !59
  %14 = icmp ult i32 %13, 2
  %15 = zext i1 %14 to i32
  br label %16

16:                                               ; preds = %4, %8, %11
  %.0 = phi i32 [ 1, %8 ], [ %15, %11 ], [ 0, %4 ]
  ret i32 %.0
}